target datalayout = "e-m:e-p270:32:32-p271:32:32-p272:64:64-i64:64-i128:128-f80:128-n8:16:32:64-S128"
target triple = "x86_64-pc-linux-gnu"

%struct.ThreadData = type { ptr, ptr }
%struct.AVChannelLayout = type { i32, i32, %union.anon.1, ptr }
%union.anon.1 = type { i64 }
%struct.AVRational = type { i32, i32 }
%struct.AVFilterContext = type { ptr, ptr, ptr, ptr, ptr, i32, ptr, ptr, i32, ptr, ptr, i32, i32, ptr, ptr, ptr, ptr, i32, ptr, i32, i32 }
%struct.ExposureContext = type { ptr, float, float, float, ptr }
%struct.AVFrame = type { [8 x ptr], [8 x i32], ptr, i32, i32, i32, i32, i32, %struct.AVRational, i64, i64, %struct.AVRational, i32, ptr, i32, i32, [8 x ptr], ptr, i32, ptr, i32, i32, i32, i32, i32, i32, i32, i64, ptr, i32, ptr, ptr, i64, i64, i64, i64, ptr, %struct.AVChannelLayout, i64 }

; Function Attrs: nounwind uwtable
define internal i32 @exposure_slice(ptr noundef %0, ptr noundef %1, i32 noundef %2, i32 noundef %3) #1 {
  %5 = alloca ptr, align 8
  %6 = alloca ptr, align 8
  %7 = alloca i32, align 4
  %8 = alloca i32, align 4
  %9 = alloca ptr, align 8
  %10 = alloca ptr, align 8
  %11 = alloca i32, align 4
  %12 = alloca i32, align 4
  %13 = alloca i32, align 4
  %14 = alloca i32, align 4
  %15 = alloca float, align 4
  %16 = alloca float, align 4
  %17 = alloca i32, align 4
  %18 = alloca i32, align 4
  %19 = alloca i32, align 4
  %20 = alloca i32, align 4
  %21 = alloca ptr, align 8
  %22 = alloca ptr, align 8
  %23 = alloca i32, align 4
  %24 = alloca i32, align 4
  %25 = alloca i32, align 4
  %26 = alloca i32, align 4
  %27 = alloca ptr, align 8
  %28 = alloca ptr, align 8
  %29 = alloca i32, align 4
  store ptr %0, ptr %5, align 8, !tbaa !23
  store ptr %1, ptr %6, align 8, !tbaa !55
  store i32 %2, ptr %7, align 4, !tbaa !56
  store i32 %3, ptr %8, align 4, !tbaa !56
  call void @llvm.lifetime.start.p0(i64 8, ptr %9) #7
  %30 = load ptr, ptr %5, align 8, !tbaa !23
  %31 = getelementptr inbounds nuw %struct.AVFilterContext, ptr %30, i32 0, i32 9
  %32 = load ptr, ptr %31, align 8, !tbaa !34
  store ptr %32, ptr %9, align 8, !tbaa !35
  call void @llvm.lifetime.start.p0(i64 8, ptr %10) #7
  %33 = load ptr, ptr %6, align 8, !tbaa !55
  store ptr %33, ptr %10, align 8, !tbaa !57
  call void @llvm.lifetime.start.p0(i64 4, ptr %11) #7
  %34 = load ptr, ptr %10, align 8, !tbaa !57
  %35 = getelementptr inbounds nuw %struct.ThreadData, ptr %34, i32 0, i32 0
  %36 = load ptr, ptr %35, align 8, !tbaa !45
  %37 = getelementptr inbounds nuw %struct.AVFrame, ptr %36, i32 0, i32 3
  %38 = load i32, ptr %37, align 8, !tbaa !59
  store i32 %38, ptr %11, align 4, !tbaa !56
  call void @llvm.lifetime.start.p0(i64 4, ptr %12) #7
  %39 = load ptr, ptr %10, align 8, !tbaa !57
  %40 = getelementptr inbounds nuw %struct.ThreadData, ptr %39, i32 0, i32 0
  %41 = load ptr, ptr %40, align 8, !tbaa !45
  %42 = getelementptr inbounds nuw %struct.AVFrame, ptr %41, i32 0, i32 4
  %43 = load i32, ptr %42, align 4, !tbaa !49
  store i32 %43, ptr %12, align 4, !tbaa !56
  call void @llvm.lifetime.start.p0(i64 4, ptr %13) #7
  %44 = load i32, ptr %12, align 4, !tbaa !56
  %45 = load i32, ptr %7, align 4, !tbaa !56
  %46 = mul nsw i32 %44, %45
  %47 = load i32, ptr %8, align 4, !tbaa !56
  %48 = sdiv i32 %46, %47
  store i32 %48, ptr %13, align 4, !tbaa !56
  call void @llvm.lifetime.start.p0(i64 4, ptr %14) #7
  %49 = load i32, ptr %12, align 4, !tbaa !56
  %50 = load i32, ptr %7, align 4, !tbaa !56
  %51 = add nsw i32 %50, 1
  %52 = mul nsw i32 %49, %51
  %53 = load i32, ptr %8, align 4, !tbaa !56
  %54 = sdiv i32 %52, %53
  store i32 %54, ptr %14, align 4, !tbaa !56
  call void @llvm.lifetime.start.p0(i64 4, ptr %15) #7
  %55 = load ptr, ptr %9, align 8, !tbaa !35
  %56 = getelementptr inbounds nuw %struct.ExposureContext, ptr %55, i32 0, i32 2
  %57 = load float, ptr %56, align 4, !tbaa !40
  store float %57, ptr %15, align 4, !tbaa !41
  call void @llvm.lifetime.start.p0(i64 4, ptr %16) #7
  %58 = load ptr, ptr %9, align 8, !tbaa !35
  %59 = getelementptr inbounds nuw %struct.ExposureContext, ptr %58, i32 0, i32 3
  %60 = load float, ptr %59, align 8, !tbaa !44
  store float %60, ptr %16, align 4, !tbaa !41
  call void @llvm.lifetime.start.p0(i64 4, ptr %17) #7
  store i32 0, ptr %17, align 4, !tbaa !56
  br label %61

61:                                               ; preds = %152, %4
  %62 = load i32, ptr %17, align 4, !tbaa !56
  %63 = icmp slt i32 %62, 3
  br i1 %63, label %65, label %64

64:                                               ; preds = %61
  store i32 2, ptr %18, align 4
  call void @llvm.lifetime.end.p0(i64 4, ptr %17) #7
  br label %155

65:                                               ; preds = %61
  call void @llvm.lifetime.start.p0(i64 4, ptr %19) #7
  %66 = load ptr, ptr %10, align 8, !tbaa !57
  %67 = getelementptr inbounds nuw %struct.ThreadData, ptr %66, i32 0, i32 1
  %68 = load ptr, ptr %67, align 8, !tbaa !47
  %69 = getelementptr inbounds nuw %struct.AVFrame, ptr %68, i32 0, i32 1
  %70 = load i32, ptr %17, align 4, !tbaa !56
  %71 = sext i32 %70 to i64
  %72 = getelementptr inbounds [8 x i32], ptr %69, i64 0, i64 %71
  %73 = load i32, ptr %72, align 4, !tbaa !56
  %74 = sdiv i32 %73, 4
  store i32 %74, ptr %19, align 4, !tbaa !56
  call void @llvm.lifetime.start.p0(i64 4, ptr %20) #7
  %75 = load ptr, ptr %10, align 8, !tbaa !57
  %76 = getelementptr inbounds nuw %struct.ThreadData, ptr %75, i32 0, i32 0
  %77 = load ptr, ptr %76, align 8, !tbaa !45
  %78 = getelementptr inbounds nuw %struct.AVFrame, ptr %77, i32 0, i32 1
  %79 = load i32, ptr %17, align 4, !tbaa !56
  %80 = sext i32 %79 to i64
  %81 = getelementptr inbounds [8 x i32], ptr %78, i64 0, i64 %80
  %82 = load i32, ptr %81, align 4, !tbaa !56
  %83 = sdiv i32 %82, 4
  store i32 %83, ptr %20, align 4, !tbaa !56
  call void @llvm.lifetime.start.p0(i64 8, ptr %21) #7
  %84 = load ptr, ptr %10, align 8, !tbaa !57
  %85 = getelementptr inbounds nuw %struct.ThreadData, ptr %84, i32 0, i32 1
  %86 = load ptr, ptr %85, align 8, !tbaa !47
  %87 = getelementptr inbounds nuw %struct.AVFrame, ptr %86, i32 0, i32 0
  %88 = load i32, ptr %17, align 4, !tbaa !56
  %89 = sext i32 %88 to i64
  %90 = getelementptr inbounds [8 x ptr], ptr %87, i64 0, i64 %89
  %91 = load ptr, ptr %90, align 8, !tbaa !60
  %92 = load i32, ptr %13, align 4, !tbaa !56
  %93 = load i32, ptr %19, align 4, !tbaa !56
  %94 = mul nsw i32 %92, %93
  %95 = sext i32 %94 to i64
  %96 = getelementptr inbounds float, ptr %91, i64 %95
  store ptr %96, ptr %21, align 8, !tbaa !61
  call void @llvm.lifetime.start.p0(i64 8, ptr %22) #7
  %97 = load ptr, ptr %10, align 8, !tbaa !57
  %98 = getelementptr inbounds nuw %struct.ThreadData, ptr %97, i32 0, i32 0
  %99 = load ptr, ptr %98, align 8, !tbaa !45
  %100 = getelementptr inbounds nuw %struct.AVFrame, ptr %99, i32 0, i32 0
  %101 = load i32, ptr %17, align 4, !tbaa !56
  %102 = sext i32 %101 to i64
  %103 = getelementptr inbounds [8 x ptr], ptr %100, i64 0, i64 %102
  %104 = load ptr, ptr %103, align 8, !tbaa !60
  %105 = load i32, ptr %13, align 4, !tbaa !56
  %106 = load i32, ptr %20, align 4, !tbaa !56
  %107 = mul nsw i32 %105, %106
  %108 = sext i32 %107 to i64
  %109 = getelementptr inbounds float, ptr %104, i64 %108
  store ptr %109, ptr %22, align 8, !tbaa !61
  call void @llvm.lifetime.start.p0(i64 4, ptr %23) #7
  %110 = load i32, ptr %13, align 4, !tbaa !56
  store i32 %110, ptr %23, align 4, !tbaa !56
  br label %111

111:                                              ; preds = %148, %65
  %112 = load i32, ptr %23, align 4, !tbaa !56
  %113 = load i32, ptr %14, align 4, !tbaa !56
  %114 = icmp slt i32 %112, %113
  br i1 %114, label %116, label %115

115:                                              ; preds = %111
  store i32 5, ptr %18, align 4
  call void @llvm.lifetime.end.p0(i64 4, ptr %23) #7
  br label %151

116:                                              ; preds = %111
  call void @llvm.lifetime.start.p0(i64 4, ptr %24) #7
  store i32 0, ptr %24, align 4, !tbaa !56
  br label %117

117:                                              ; preds = %136, %116
  %118 = load i32, ptr %24, align 4, !tbaa !56
  %119 = load i32, ptr %11, align 4, !tbaa !56
  %120 = icmp slt i32 %118, %119
  br i1 %120, label %122, label %121

121:                                              ; preds = %117
  store i32 8, ptr %18, align 4
  call void @llvm.lifetime.end.p0(i64 4, ptr %24) #7
  br label %139

122:                                              ; preds = %117
  %123 = load ptr, ptr %21, align 8, !tbaa !61
  %124 = load i32, ptr %24, align 4, !tbaa !56
  %125 = sext i32 %124 to i64
  %126 = getelementptr inbounds float, ptr %123, i64 %125
  %127 = load float, ptr %126, align 4, !tbaa !41
  %128 = load float, ptr %15, align 4, !tbaa !41
  %129 = fsub nsz float %127, %128
  %130 = load float, ptr %16, align 4, !tbaa !41
  %131 = fmul nsz float %129, %130
  %132 = load ptr, ptr %22, align 8, !tbaa !61
  %133 = load i32, ptr %24, align 4, !tbaa !56
  %134 = sext i32 %133 to i64
  %135 = getelementptr inbounds float, ptr %132, i64 %134
  store float %131, ptr %135, align 4, !tbaa !41
  br label %136

136:                                              ; preds = %122
  %137 = load i32, ptr %24, align 4, !tbaa !56
  %138 = add nsw i32 %137, 1
  store i32 %138, ptr %24, align 4, !tbaa !56
  br label %117, !llvm.loop !63

139:                                              ; preds = %121
  %140 = load i32, ptr %20, align 4, !tbaa !56
  %141 = load ptr, ptr %22, align 8, !tbaa !61
  %142 = sext i32 %140 to i64
  %143 = getelementptr inbounds float, ptr %141, i64 %142
  store ptr %143, ptr %22, align 8, !tbaa !61
  %144 = load i32, ptr %19, align 4, !tbaa !56
  %145 = load ptr, ptr %21, align 8, !tbaa !61
  %146 = sext i32 %144 to i64
  %147 = getelementptr inbounds float, ptr %145, i64 %146
  store ptr %147, ptr %21, align 8, !tbaa !61
  br label %148

148:                                              ; preds = %139
  %149 = load i32, ptr %23, align 4, !tbaa !56
  %150 = add nsw i32 %149, 1
  store i32 %150, ptr %23, align 4, !tbaa !56
  br label %111, !llvm.loop !65

151:                                              ; preds = %115
  call void @llvm.lifetime.end.p0(i64 8, ptr %22) #7
  call void @llvm.lifetime.end.p0(i64 8, ptr %21) #7
  call void @llvm.lifetime.end.p0(i64 4, ptr %20) #7
  call void @llvm.lifetime.end.p0(i64 4, ptr %19) #7
  br label %152

152:                                              ; preds = %151
  %153 = load i32, ptr %17, align 4, !tbaa !56
  %154 = add nsw i32 %153, 1
  store i32 %154, ptr %17, align 4, !tbaa !56
  br label %61, !llvm.loop !66

155:                                              ; preds = %64
  %156 = load ptr, ptr %10, align 8, !tbaa !57
  %157 = getelementptr inbounds nuw %struct.ThreadData, ptr %156, i32 0, i32 1
  %158 = load ptr, ptr %157, align 8, !tbaa !47
  %159 = getelementptr inbounds nuw %struct.AVFrame, ptr %158, i32 0, i32 0
  %160 = getelementptr inbounds [8 x ptr], ptr %159, i64 0, i64 3
  %161 = load ptr, ptr %160, align 8, !tbaa !60
  %162 = icmp ne ptr %161, null
  br i1 %162, label %163, label %240

163:                                              ; preds = %155
  %164 = load ptr, ptr %10, align 8, !tbaa !57
  %165 = getelementptr inbounds nuw %struct.ThreadData, ptr %164, i32 0, i32 1
  %166 = load ptr, ptr %165, align 8, !tbaa !47
  %167 = getelementptr inbounds nuw %struct.AVFrame, ptr %166, i32 0, i32 1
  %168 = getelementptr inbounds [8 x i32], ptr %167, i64 0, i64 3
  %169 = load i32, ptr %168, align 4, !tbaa !56
  %170 = icmp ne i32 %169, 0
  br i1 %170, label %171, label %240

171:                                              ; preds = %163
  %172 = load ptr, ptr %10, align 8, !tbaa !57
  %173 = getelementptr inbounds nuw %struct.ThreadData, ptr %172, i32 0, i32 1
  %174 = load ptr, ptr %173, align 8, !tbaa !47
  %175 = load ptr, ptr %10, align 8, !tbaa !57
  %176 = getelementptr inbounds nuw %struct.ThreadData, ptr %175, i32 0, i32 0
  %177 = load ptr, ptr %176, align 8, !tbaa !45
  %178 = icmp ne ptr %174, %177
  br i1 %178, label %179, label %240

179:                                              ; preds = %171
  call void @llvm.lifetime.start.p0(i64 4, ptr %25) #7
  %180 = load ptr, ptr %10, align 8, !tbaa !57
  %181 = getelementptr inbounds nuw %struct.ThreadData, ptr %180, i32 0, i32 1
  %182 = load ptr, ptr %181, align 8, !tbaa !47
  %183 = getelementptr inbounds nuw %struct.AVFrame, ptr %182, i32 0, i32 1
  %184 = getelementptr inbounds [8 x i32], ptr %183, i64 0, i64 3
  %185 = load i32, ptr %184, align 4, !tbaa !56
  %186 = sdiv i32 %185, 4
  store i32 %186, ptr %25, align 4, !tbaa !56
  call void @llvm.lifetime.start.p0(i64 4, ptr %26) #7
  %187 = load ptr, ptr %10, align 8, !tbaa !57
  %188 = getelementptr inbounds nuw %struct.ThreadData, ptr %187, i32 0, i32 0
  %189 = load ptr, ptr %188, align 8, !tbaa !45
  %190 = getelementptr inbounds nuw %struct.AVFrame, ptr %189, i32 0, i32 1
  %191 = getelementptr inbounds [8 x i32], ptr %190, i64 0, i64 3
  %192 = load i32, ptr %191, align 4, !tbaa !56
  %193 = sdiv i32 %192, 4
  store i32 %193, ptr %26, align 4, !tbaa !56
  call void @llvm.lifetime.start.p0(i64 8, ptr %27) #7
  %194 = load ptr, ptr %10, align 8, !tbaa !57
  %195 = getelementptr inbounds nuw %struct.ThreadData, ptr %194, i32 0, i32 1
  %196 = load ptr, ptr %195, align 8, !tbaa !47
  %197 = getelementptr inbounds nuw %struct.AVFrame, ptr %196, i32 0, i32 0
  %198 = getelementptr inbounds [8 x ptr], ptr %197, i64 0, i64 3
  %199 = load ptr, ptr %198, align 8, !tbaa !60
  %200 = load i32, ptr %13, align 4, !tbaa !56
  %201 = load i32, ptr %25, align 4, !tbaa !56
  %202 = mul nsw i32 %200, %201
  %203 = sext i32 %202 to i64
  %204 = getelementptr inbounds float, ptr %199, i64 %203
  store ptr %204, ptr %27, align 8, !tbaa !61
  call void @llvm.lifetime.start.p0(i64 8, ptr %28) #7
  %205 = load ptr, ptr %10, align 8, !tbaa !57
  %206 = getelementptr inbounds nuw %struct.ThreadData, ptr %205, i32 0, i32 0
  %207 = load ptr, ptr %206, align 8, !tbaa !45
  %208 = getelementptr inbounds nuw %struct.AVFrame, ptr %207, i32 0, i32 0
  %209 = getelementptr inbounds [8 x ptr], ptr %208, i64 0, i64 3
  %210 = load ptr, ptr %209, align 8, !tbaa !60
  %211 = load i32, ptr %13, align 4, !tbaa !56
  %212 = load i32, ptr %26, align 4, !tbaa !56
  %213 = mul nsw i32 %211, %212
  %214 = sext i32 %213 to i64
  %215 = getelementptr inbounds float, ptr %210, i64 %214
  store ptr %215, ptr %28, align 8, !tbaa !61
  call void @llvm.lifetime.start.p0(i64 4, ptr %29) #7
  %216 = load i32, ptr %13, align 4, !tbaa !56
  store i32 %216, ptr %29, align 4, !tbaa !56
  br label %217

217:                                              ; preds = %236, %179
  %218 = load i32, ptr %29, align 4, !tbaa !56
  %219 = load i32, ptr %14, align 4, !tbaa !56
  %220 = icmp slt i32 %218, %219
  br i1 %220, label %222, label %221

221:                                              ; preds = %217
  store i32 11, ptr %18, align 4
  call void @llvm.lifetime.end.p0(i64 4, ptr %29) #7
  br label %239

222:                                              ; preds = %217
  %223 = load ptr, ptr %28, align 8, !tbaa !61
  %224 = load ptr, ptr %27, align 8, !tbaa !61
  %225 = load i32, ptr %11, align 4, !tbaa !56
  %226 = sext i32 %225 to i64
  %227 = mul i64 %226, 4
  call void @llvm.memcpy.p0.p0.i64(ptr align 4 %223, ptr align 4 %224, i64 %227, i1 false)
  %228 = load i32, ptr %26, align 4, !tbaa !56
  %229 = load ptr, ptr %28, align 8, !tbaa !61
  %230 = sext i32 %228 to i64
  %231 = getelementptr inbounds float, ptr %229, i64 %230
  store ptr %231, ptr %28, align 8, !tbaa !61
  %232 = load i32, ptr %25, align 4, !tbaa !56
  %233 = load ptr, ptr %27, align 8, !tbaa !61
  %234 = sext i32 %232 to i64
  %235 = getelementptr inbounds float, ptr %233, i64 %234
  store ptr %235, ptr %27, align 8, !tbaa !61
  br label %236

236:                                              ; preds = %222
  %237 = load i32, ptr %29, align 4, !tbaa !56
  %238 = add nsw i32 %237, 1
  store i32 %238, ptr %29, align 4, !tbaa !56
  br label %217, !llvm.loop !67

239:                                              ; preds = %221
  call void @llvm.lifetime.end.p0(i64 8, ptr %28) #7
  call void @llvm.lifetime.end.p0(i64 8, ptr %27) #7
  call void @llvm.lifetime.end.p0(i64 4, ptr %26) #7
  call void @llvm.lifetime.end.p0(i64 4, ptr %25) #7
  br label %240

240:                                              ; preds = %239, %171, %163, %155
  store i32 1, ptr %18, align 4
  call void @llvm.lifetime.end.p0(i64 4, ptr %16) #7
  call void @llvm.lifetime.end.p0(i64 4, ptr %15) #7
  call void @llvm.lifetime.end.p0(i64 4, ptr %14) #7
  call void @llvm.lifetime.end.p0(i64 4, ptr %13) #7
  call void @llvm.lifetime.end.p0(i64 4, ptr %12) #7
  call void @llvm.lifetime.end.p0(i64 4, ptr %11) #7
  call void @llvm.lifetime.end.p0(i64 8, ptr %10) #7
  call void @llvm.lifetime.end.p0(i64 8, ptr %9) #7
  ret i32 0
}