; Function Attrs: nofree norecurse nosync nounwind memory(readwrite, inaccessiblemem: none) uwtable
define internal noundef i32 @exposure_slice(ptr noundef readonly captures(none) %0, ptr noundef readonly captures(none) %1, i32 noundef %2, i32 noundef %3) #6 {
  %5 = getelementptr inbounds nuw i8, ptr %0, i64 72
  %6 = load ptr, ptr %5, align 8, !tbaa !33
  %7 = load ptr, ptr %1, align 8, !tbaa !41
  %8 = getelementptr inbounds nuw i8, ptr %7, i64 104
  %9 = load i32, ptr %8, align 8, !tbaa !51
  %10 = getelementptr inbounds nuw i8, ptr %7, i64 108
  %11 = load i32, ptr %10, align 4, !tbaa !45
  %12 = mul nsw i32 %11, %2
  %13 = sdiv i32 %12, %3
  %14 = add nsw i32 %2, 1
  %15 = mul nsw i32 %11, %14
  %16 = sdiv i32 %15, %3
  %17 = getelementptr inbounds nuw i8, ptr %6, i64 12
  %18 = load float, ptr %17, align 4, !tbaa !37
  %19 = getelementptr inbounds nuw i8, ptr %6, i64 16
  %20 = load float, ptr %19, align 8, !tbaa !40
  %21 = getelementptr inbounds nuw i8, ptr %1, i64 8
  %22 = load ptr, ptr %21, align 8, !tbaa !43
  %23 = getelementptr inbounds nuw i8, ptr %22, i64 64
  %24 = getelementptr inbounds nuw i8, ptr %7, i64 64
  %25 = icmp slt i32 %13, %16
  %26 = icmp sgt i32 %9, 0
  %or.cond103 = select i1 %25, i1 %26, i1 false
  br i1 %or.cond103, label %.preheader.lr.ph.us.us.preheader, label %.split90.us

.preheader.lr.ph.us.us.preheader:                 ; preds = %4
  %wide.trip.count = zext nneg i32 %9 to i64
  br label %.preheader.lr.ph.us.us

.preheader.lr.ph.us.us:                           ; preds = %.preheader.lr.ph.us.us.preheader, %._crit_edge81.split.us.us.us
  %indvars.iv98 = phi i64 [ 0, %.preheader.lr.ph.us.us.preheader ], [ %indvars.iv.next99, %._crit_edge81.split.us.us.us ]
  %27 = getelementptr inbounds nuw [8 x i32], ptr %23, i64 0, i64 %indvars.iv98
  %28 = load i32, ptr %27, align 4, !tbaa !52
  %29 = sdiv i32 %28, 4
  %30 = getelementptr inbounds nuw [8 x i32], ptr %24, i64 0, i64 %indvars.iv98
  %31 = load i32, ptr %30, align 4, !tbaa !52
  %32 = sdiv i32 %31, 4
  %33 = getelementptr inbounds nuw [8 x ptr], ptr %22, i64 0, i64 %indvars.iv98
  %34 = load ptr, ptr %33, align 8, !tbaa !53
  %35 = mul nsw i32 %29, %13
  %36 = sext i32 %35 to i64
  %37 = getelementptr inbounds float, ptr %34, i64 %36
  %38 = getelementptr inbounds nuw [8 x ptr], ptr %7, i64 0, i64 %indvars.iv98
  %39 = load ptr, ptr %38, align 8, !tbaa !53
  %40 = mul nsw i32 %32, %13
  %41 = sext i32 %40 to i64
  %42 = getelementptr inbounds float, ptr %39, i64 %41
  %43 = sext i32 %32 to i64
  %44 = sext i32 %29 to i64
  br label %.preheader.us.us.us

.preheader.us.us.us:                              ; preds = %._crit_edge.us.us.us, %.preheader.lr.ph.us.us
  %.06980.us.us.us = phi i32 [ %13, %.preheader.lr.ph.us.us ], [ %53, %._crit_edge.us.us.us ]
  %.07079.us.us.us = phi ptr [ %42, %.preheader.lr.ph.us.us ], [ %51, %._crit_edge.us.us.us ]
  %.07178.us.us.us = phi ptr [ %37, %.preheader.lr.ph.us.us ], [ %52, %._crit_edge.us.us.us ]
  br label %45

45:                                               ; preds = %45, %.preheader.us.us.us
  %indvars.iv = phi i64 [ %indvars.iv.next, %45 ], [ 0, %.preheader.us.us.us ]
  %46 = getelementptr inbounds nuw float, ptr %.07178.us.us.us, i64 %indvars.iv
  %47 = load float, ptr %46, align 4, !tbaa !54
  %48 = fsub nsz float %47, %18
  %49 = fmul nsz float %20, %48
  %50 = getelementptr inbounds nuw float, ptr %.07079.us.us.us, i64 %indvars.iv
  store float %49, ptr %50, align 4, !tbaa !54
  %indvars.iv.next = add nuw nsw i64 %indvars.iv, 1
  %exitcond.not = icmp eq i64 %indvars.iv.next, %wide.trip.count
  br i1 %exitcond.not, label %._crit_edge.us.us.us, label %45, !llvm.loop !55

._crit_edge.us.us.us:                             ; preds = %45
  %51 = getelementptr inbounds float, ptr %.07079.us.us.us, i64 %43
  %52 = getelementptr inbounds float, ptr %.07178.us.us.us, i64 %44
  %53 = add nsw i32 %.06980.us.us.us, 1
  %exitcond97.not = icmp eq i32 %53, %16
  br i1 %exitcond97.not, label %._crit_edge81.split.us.us.us, label %.preheader.us.us.us, !llvm.loop !57

._crit_edge81.split.us.us.us:                     ; preds = %._crit_edge.us.us.us
  %indvars.iv.next99 = add nuw nsw i64 %indvars.iv98, 1
  %exitcond101.not = icmp eq i64 %indvars.iv.next99, 3
  br i1 %exitcond101.not, label %.split90.us, label %.preheader.lr.ph.us.us, !llvm.loop !58

.split90.us:                                      ; preds = %._crit_edge81.split.us.us.us, %4
  %54 = getelementptr inbounds nuw i8, ptr %22, i64 24
  %55 = load ptr, ptr %54, align 8, !tbaa !53
  %.not = icmp eq ptr %55, null
  br i1 %.not, label %.loopexit, label %56

56:                                               ; preds = %.split90.us
  %57 = getelementptr inbounds nuw i8, ptr %22, i64 76
  %58 = load i32, ptr %57, align 4, !tbaa !52
  %.not75 = icmp ne i32 %58, 0
  %.not76 = icmp ne ptr %22, %7
  %or.cond.not105 = and i1 %.not76, %.not75
  %brmerge.not = and i1 %or.cond.not105, %25
  br i1 %brmerge.not, label %.lr.ph, label %.loopexit

.lr.ph:                                           ; preds = %56
  %59 = getelementptr inbounds nuw i8, ptr %7, i64 24
  %60 = load ptr, ptr %59, align 8, !tbaa !53
  %61 = getelementptr inbounds nuw i8, ptr %7, i64 76
  %62 = load i32, ptr %61, align 4, !tbaa !52
  %63 = sdiv i32 %62, 4
  %64 = mul nsw i32 %63, %13
  %65 = sext i32 %64 to i64
  %66 = getelementptr inbounds float, ptr %60, i64 %65
  %67 = sdiv i32 %58, 4
  %68 = mul nsw i32 %67, %13
  %69 = sext i32 %68 to i64
  %70 = getelementptr inbounds float, ptr %55, i64 %69
  %71 = sext i32 %9 to i64
  %72 = shl nsw i64 %71, 2
  %73 = sext i32 %63 to i64
  %74 = sext i32 %67 to i64
  br label %75

75:                                               ; preds = %.lr.ph, %75
  %.093 = phi i32 [ %13, %.lr.ph ], [ %78, %75 ]
  %.06592 = phi ptr [ %66, %.lr.ph ], [ %76, %75 ]
  %.06691 = phi ptr [ %70, %.lr.ph ], [ %77, %75 ]
  tail call void @llvm.memcpy.p0.p0.i64(ptr align 4 %.06592, ptr align 4 %.06691, i64 %72, i1 false)
  %76 = getelementptr inbounds float, ptr %.06592, i64 %73
  %77 = getelementptr inbounds float, ptr %.06691, i64 %74
  %78 = add nsw i32 %.093, 1
  %exitcond102.not = icmp eq i32 %78, %16
  br i1 %exitcond102.not, label %.loopexit, label %75, !llvm.loop !59

.loopexit:                                        ; preds = %75, %56, %.split90.us
  ret i32 0
}